target datalayout = "e-m:e-p270:32:32-p271:32:32-p272:64:64-i64:64-i128:128-f80:128-n8:16:32:64-S128"
target triple = "x86_64-pc-linux-gnu"

%struct.EState = type { i32, i32, ptr, ptr, ptr, i32, ptr, ptr, ptr, ptr, ptr, ptr, ptr, ptr, ptr, ptr, i32, ptr, ptr, ptr, ptr, ptr, ptr, ptr, ptr, ptr, ptr, i64, i64, i32, i32, i8, ptr, ptr, ptr, ptr, ptr, i8, i32, i32, ptr, i32, ptr, ptr, ptr, ptr }
%struct.List = type { i32, i32, i32, ptr, [0 x %union.ListCell] }
%union.ListCell = type { ptr }
%struct.PlannedStmt = type { i32, i32, i64, i8, i8, i8, i8, i8, i8, i32, ptr, ptr, ptr, ptr, ptr, ptr, ptr, ptr, ptr, ptr, ptr, ptr, ptr, ptr, i32, i32 }
%struct.ParamExecData = type { ptr, i64, i8 }

; Function Attrs: inlinehint nounwind uwtable
define internal ptr @list_nth_cell(ptr noundef %0, i32 noundef %1) #7 {
  %3 = alloca ptr, align 8
  %4 = alloca i32, align 4
  store ptr %0, ptr %3, align 8
  store i32 %1, ptr %4, align 4
  %5 = load ptr, ptr %3, align 8
  %6 = getelementptr inbounds nuw %struct.List, ptr %5, i32 0, i32 3
  %7 = load ptr, ptr %6, align 8
  %8 = load i32, ptr %4, align 4
  %9 = sext i32 %8 to i64
  %10 = getelementptr inbounds %union.ListCell, ptr %7, i64 %9
  ret ptr %10
}

; Function Attrs: inlinehint nounwind uwtable
define internal i32 @list_nth_oid(ptr noundef %0, i32 noundef %1) #7 {
  %3 = alloca ptr, align 8
  %4 = alloca i32, align 4
  store ptr %0, ptr %3, align 8
  store i32 %1, ptr %4, align 4
  %5 = load ptr, ptr %3, align 8
  %6 = load i32, ptr %4, align 4
  %7 = call ptr @list_nth_cell(ptr noundef %5, i32 noundef %6)
  %8 = load i32, ptr %7, align 8
  ret i32 %8
}

; Function Attrs: nounwind uwtable
define internal i64 @EstimateParamExecSpace(ptr noundef %0, ptr noundef %1) #0 {
  %3 = alloca ptr, align 8
  %4 = alloca ptr, align 8
  %5 = alloca i32, align 4
  %6 = alloca i64, align 8
  %7 = alloca i32, align 4
  %8 = alloca i16, align 2
  %9 = alloca i8, align 1
  %10 = alloca ptr, align 8
  store ptr %0, ptr %3, align 8
  store ptr %1, ptr %4, align 8
  call void @llvm.lifetime.start.p0(i64 4, ptr %5) #8
  call void @llvm.lifetime.start.p0(i64 8, ptr %6) #8
  store i64 4, ptr %6, align 8
  store i32 -1, ptr %5, align 4
  br label %11

11:                                               ; preds = %37, %2
  %12 = load ptr, ptr %4, align 8
  %13 = load i32, ptr %5, align 4
  %14 = call i32 @bms_next_member(ptr noundef %12, i32 noundef %13)
  store i32 %14, ptr %5, align 4
  %15 = icmp sge i32 %14, 0
  br i1 %15, label %16, label %52

16:                                               ; preds = %11
  call void @llvm.lifetime.start.p0(i64 4, ptr %7) #8
  call void @llvm.lifetime.start.p0(i64 2, ptr %8) #8
  call void @llvm.lifetime.start.p0(i64 1, ptr %9) #8
  call void @llvm.lifetime.start.p0(i64 8, ptr %10) #8
  %17 = load ptr, ptr %3, align 8
  %18 = getelementptr inbounds nuw %struct.EState, ptr %17, i32 0, i32 23
  %19 = load ptr, ptr %18, align 8
  %20 = load i32, ptr %5, align 4
  %21 = sext i32 %20 to i64
  %22 = getelementptr inbounds %struct.ParamExecData, ptr %19, i64 %21
  store ptr %22, ptr %10, align 8
  %23 = load ptr, ptr %3, align 8
  %24 = getelementptr inbounds nuw %struct.EState, ptr %23, i32 0, i32 9
  %25 = load ptr, ptr %24, align 8
  %26 = getelementptr inbounds nuw %struct.PlannedStmt, ptr %25, i32 0, i32 22
  %27 = load ptr, ptr %26, align 8
  %28 = load i32, ptr %5, align 4
  %29 = call i32 @list_nth_oid(ptr noundef %27, i32 noundef %28)
  store i32 %29, ptr %7, align 4
  %30 = load i64, ptr %6, align 8
  %31 = call i64 @add_size(i64 noundef %30, i64 noundef 4)
  store i64 %31, ptr %6, align 8
  %32 = load i32, ptr %7, align 4
  %33 = icmp ne i32 %32, 0
  br i1 %33, label %34, label %36

34:                                               ; preds = %16
  %35 = load i32, ptr %7, align 4
  call void @get_typlenbyval(i32 noundef %35, ptr noundef %8, ptr noundef %9)
  br label %37

36:                                               ; preds = %16
  store i16 8, ptr %8, align 2
  store i8 1, ptr %9, align 1
  br label %37

37:                                               ; preds = %36, %34
  %38 = load i64, ptr %6, align 8
  %39 = load ptr, ptr %10, align 8
  %40 = getelementptr inbounds nuw %struct.ParamExecData, ptr %39, i32 0, i32 1
  %41 = load i64, ptr %40, align 8
  %42 = load ptr, ptr %10, align 8
  %43 = getelementptr inbounds nuw %struct.ParamExecData, ptr %42, i32 0, i32 2
  %44 = load i8, ptr %43, align 8, !range !7, !noundef !8
  %45 = trunc i8 %44 to i1
  %46 = load i8, ptr %9, align 1, !range !7, !noundef !8
  %47 = trunc i8 %46 to i1
  %48 = load i16, ptr %8, align 2
  %49 = sext i16 %48 to i32
  %50 = call i64 @datumEstimateSpace(i64 noundef %41, i1 noundef zeroext %45, i1 noundef zeroext %47, i32 noundef %49)
  %51 = call i64 @add_size(i64 noundef %38, i64 noundef %50)
  store i64 %51, ptr %6, align 8
  call void @llvm.lifetime.end.p0(i64 8, ptr %10) #8
  call void @llvm.lifetime.end.p0(i64 1, ptr %9) #8
  call void @llvm.lifetime.end.p0(i64 2, ptr %8) #8
  call void @llvm.lifetime.end.p0(i64 4, ptr %7) #8
  br label %11, !llvm.loop !21

52:                                               ; preds = %11
  %53 = load i64, ptr %6, align 8
  call void @llvm.lifetime.end.p0(i64 8, ptr %6) #8
  call void @llvm.lifetime.end.p0(i64 4, ptr %5) #8
  ret i64 %53
}

; Function Attrs: nounwind uwtable
define internal i64 @SerializeParamExecParams(ptr noundef %0, ptr noundef %1, ptr noundef %2) #0 {
  %4 = alloca ptr, align 8
  %5 = alloca ptr, align 8
  %6 = alloca ptr, align 8
  %7 = alloca i64, align 8
  %8 = alloca i32, align 4
  %9 = alloca i32, align 4
  %10 = alloca ptr, align 8
  %11 = alloca i64, align 8
  %12 = alloca ptr, align 8
  %13 = alloca i32, align 4
  %14 = alloca i16, align 2
  %15 = alloca i8, align 1
  store ptr %0, ptr %4, align 8
  store ptr %1, ptr %5, align 8
  store ptr %2, ptr %6, align 8
  call void @llvm.lifetime.start.p0(i64 8, ptr %7) #8
  call void @llvm.lifetime.start.p0(i64 4, ptr %8) #8
  call void @llvm.lifetime.start.p0(i64 4, ptr %9) #8
  call void @llvm.lifetime.start.p0(i64 8, ptr %10) #8
  call void @llvm.lifetime.start.p0(i64 8, ptr %11) #8
  call void @llvm.lifetime.start.p0(i64 8, ptr %12) #8
  %16 = load ptr, ptr %4, align 8
  %17 = load ptr, ptr %5, align 8
  %18 = call i64 @EstimateParamExecSpace(ptr noundef %16, ptr noundef %17)
  store i64 %18, ptr %7, align 8
  %19 = load ptr, ptr %6, align 8
  %20 = load i64, ptr %7, align 8
  %21 = call i64 @dsa_allocate_extended(ptr noundef %19, i64 noundef %20, i32 noundef 0)
  store i64 %21, ptr %11, align 8
  %22 = load ptr, ptr %6, align 8
  %23 = load i64, ptr %11, align 8
  %24 = call ptr @dsa_get_address(ptr noundef %22, i64 noundef %23)
  store ptr %24, ptr %12, align 8
  %25 = load ptr, ptr %5, align 8
  %26 = call i32 @bms_num_members(ptr noundef %25)
  store i32 %26, ptr %8, align 4
  %27 = load ptr, ptr %12, align 8
  call void @llvm.memcpy.p0.p0.i64(ptr align 1 %27, ptr align 4 %8, i64 4, i1 false)
  %28 = load ptr, ptr %12, align 8
  %29 = getelementptr inbounds nuw i8, ptr %28, i64 4
  store ptr %29, ptr %12, align 8
  store i32 -1, ptr %9, align 4
  br label %30

30:                                               ; preds = %57, %3
  %31 = load ptr, ptr %5, align 8
  %32 = load i32, ptr %9, align 4
  %33 = call i32 @bms_next_member(ptr noundef %31, i32 noundef %32)
  store i32 %33, ptr %9, align 4
  %34 = icmp sge i32 %33, 0
  br i1 %34, label %35, label %69

35:                                               ; preds = %30
  call void @llvm.lifetime.start.p0(i64 4, ptr %13) #8
  call void @llvm.lifetime.start.p0(i64 2, ptr %14) #8
  call void @llvm.lifetime.start.p0(i64 1, ptr %15) #8
  %36 = load ptr, ptr %4, align 8
  %37 = getelementptr inbounds nuw %struct.EState, ptr %36, i32 0, i32 23
  %38 = load ptr, ptr %37, align 8
  %39 = load i32, ptr %9, align 4
  %40 = sext i32 %39 to i64
  %41 = getelementptr inbounds %struct.ParamExecData, ptr %38, i64 %40
  store ptr %41, ptr %10, align 8
  %42 = load ptr, ptr %4, align 8
  %43 = getelementptr inbounds nuw %struct.EState, ptr %42, i32 0, i32 9
  %44 = load ptr, ptr %43, align 8
  %45 = getelementptr inbounds nuw %struct.PlannedStmt, ptr %44, i32 0, i32 22
  %46 = load ptr, ptr %45, align 8
  %47 = load i32, ptr %9, align 4
  %48 = call i32 @list_nth_oid(ptr noundef %46, i32 noundef %47)
  store i32 %48, ptr %13, align 4
  %49 = load ptr, ptr %12, align 8
  call void @llvm.memcpy.p0.p0.i64(ptr align 1 %49, ptr align 4 %9, i64 4, i1 false)
  %50 = load ptr, ptr %12, align 8
  %51 = getelementptr inbounds nuw i8, ptr %50, i64 4
  store ptr %51, ptr %12, align 8
  %52 = load i32, ptr %13, align 4
  %53 = icmp ne i32 %52, 0
  br i1 %53, label %54, label %56

54:                                               ; preds = %35
  %55 = load i32, ptr %13, align 4
  call void @get_typlenbyval(i32 noundef %55, ptr noundef %14, ptr noundef %15)
  br label %57

56:                                               ; preds = %35
  store i16 8, ptr %14, align 2
  store i8 1, ptr %15, align 1
  br label %57

57:                                               ; preds = %56, %54
  %58 = load ptr, ptr %10, align 8
  %59 = getelementptr inbounds nuw %struct.ParamExecData, ptr %58, i32 0, i32 1
  %60 = load i64, ptr %59, align 8
  %61 = load ptr, ptr %10, align 8
  %62 = getelementptr inbounds nuw %struct.ParamExecData, ptr %61, i32 0, i32 2
  %63 = load i8, ptr %62, align 8, !range !7, !noundef !8
  %64 = trunc i8 %63 to i1
  %65 = load i8, ptr %15, align 1, !range !7, !noundef !8
  %66 = trunc i8 %65 to i1
  %67 = load i16, ptr %14, align 2
  %68 = sext i16 %67 to i32
  call void @datumSerialize(i64 noundef %60, i1 noundef zeroext %64, i1 noundef zeroext %66, i32 noundef %68, ptr noundef %12)
  call void @llvm.lifetime.end.p0(i64 1, ptr %15) #8
  call void @llvm.lifetime.end.p0(i64 2, ptr %14) #8
  call void @llvm.lifetime.end.p0(i64 4, ptr %13) #8
  br label %30, !llvm.loop !11

69:                                               ; preds = %30
  %70 = load i64, ptr %11, align 8
  call void @llvm.lifetime.end.p0(i64 8, ptr %12) #8
  call void @llvm.lifetime.end.p0(i64 8, ptr %11) #8
  call void @llvm.lifetime.end.p0(i64 8, ptr %10) #8
  call void @llvm.lifetime.end.p0(i64 4, ptr %9) #8
  call void @llvm.lifetime.end.p0(i64 4, ptr %8) #8
  call void @llvm.lifetime.end.p0(i64 8, ptr %7) #8
  ret i64 %70
}