; Function Attrs: nounwind uwtable
define internal fastcc noundef i64 @SerializeParamExecParams(ptr noundef readonly captures(none) %0, ptr noundef nonnull %1, ptr noundef %2) unnamed_addr #0 {
  %4 = alloca i16, align 2
  %5 = alloca i8, align 1
  %6 = alloca ptr, align 8
  %7 = alloca i16, align 2
  %8 = alloca i8, align 1
  call void @llvm.lifetime.start.p0(i64 8, ptr nonnull %6) #9
  %9 = tail call i32 @bms_next_member(ptr noundef nonnull %1, i32 noundef -1) #9
  %10 = icmp sgt i32 %9, -1
  br i1 %10, label %.lr.ph.i, label %EstimateParamExecSpace.exit

.lr.ph.i:                                         ; preds = %3
  %11 = getelementptr inbounds nuw i8, ptr %0, i64 176
  %12 = getelementptr inbounds nuw i8, ptr %0, i64 64
  br label %13

13:                                               ; preds = %29, %.lr.ph.i
  %14 = phi i32 [ %9, %.lr.ph.i ], [ %39, %29 ]
  %.01215.i = phi i64 [ 4, %.lr.ph.i ], [ %38, %29 ]
  call void @llvm.lifetime.start.p0(i64 2, ptr nonnull %4) #9
  call void @llvm.lifetime.start.p0(i64 1, ptr nonnull %5) #9
  %15 = load ptr, ptr %11, align 8
  %16 = zext nneg i32 %14 to i64
  %17 = getelementptr inbounds nuw %struct.ParamExecData, ptr %15, i64 %16
  %18 = load ptr, ptr %12, align 8
  %19 = getelementptr inbounds nuw i8, ptr %18, i64 128
  %20 = load ptr, ptr %19, align 8
  %21 = getelementptr i8, ptr %20, i64 16
  %.val.i = load ptr, ptr %21, align 8
  %22 = getelementptr inbounds nuw %union.ListCell, ptr %.val.i, i64 %16
  %23 = load i32, ptr %22, align 8
  %24 = call i64 @add_size(i64 noundef %.01215.i, i64 noundef 4) #9
  %.not.i = icmp eq i32 %23, 0
  br i1 %.not.i, label %28, label %25

25:                                               ; preds = %13
  call void @get_typlenbyval(i32 noundef %23, ptr noundef nonnull %4, ptr noundef nonnull %5) #9
  %.pre.i = load i8, ptr %5, align 1, !range !4
  %.pre16.i = load i16, ptr %4, align 2
  %26 = trunc nuw i8 %.pre.i to i1
  %27 = sext i16 %.pre16.i to i32
  br label %29

28:                                               ; preds = %13
  store i16 8, ptr %4, align 2
  store i8 1, ptr %5, align 1
  br label %29

29:                                               ; preds = %28, %25
  %30 = phi i32 [ 8, %28 ], [ %27, %25 ]
  %31 = phi i1 [ true, %28 ], [ %26, %25 ]
  %32 = getelementptr inbounds nuw i8, ptr %17, i64 8
  %33 = load i64, ptr %32, align 8
  %34 = getelementptr inbounds nuw i8, ptr %17, i64 16
  %35 = load i8, ptr %34, align 8, !range !4, !noundef !5
  %36 = trunc nuw i8 %35 to i1
  %37 = call i64 @datumEstimateSpace(i64 noundef %33, i1 noundef zeroext %36, i1 noundef zeroext %31, i32 noundef %30) #9
  %38 = call i64 @add_size(i64 noundef %24, i64 noundef %37) #9
  call void @llvm.lifetime.end.p0(i64 1, ptr nonnull %5) #9
  call void @llvm.lifetime.end.p0(i64 2, ptr nonnull %4) #9
  %39 = call i32 @bms_next_member(ptr noundef nonnull %1, i32 noundef %14) #9
  %40 = icmp sgt i32 %39, -1
  br i1 %40, label %13, label %EstimateParamExecSpace.exit, !llvm.loop !9

EstimateParamExecSpace.exit:                      ; preds = %29, %3
  %.012.lcssa.i = phi i64 [ 4, %3 ], [ %38, %29 ]
  %41 = call i64 @dsa_allocate_extended(ptr noundef %2, i64 noundef %.012.lcssa.i, i32 noundef 0) #9
  %42 = call ptr @dsa_get_address(ptr noundef %2, i64 noundef %41) #9
  %43 = call i32 @bms_num_members(ptr noundef nonnull %1) #9
  store i32 %43, ptr %42, align 1
  %44 = getelementptr inbounds nuw i8, ptr %42, i64 4
  store ptr %44, ptr %6, align 8
  %45 = call i32 @bms_next_member(ptr noundef nonnull %1, i32 noundef -1) #9
  %46 = icmp sgt i32 %45, -1
  br i1 %46, label %.lr.ph, label %._crit_edge

.lr.ph:                                           ; preds = %EstimateParamExecSpace.exit
  %47 = getelementptr inbounds nuw i8, ptr %0, i64 176
  %48 = getelementptr inbounds nuw i8, ptr %0, i64 64
  br label %49

49:                                               ; preds = %.lr.ph, %67
  %50 = phi i32 [ %45, %.lr.ph ], [ %75, %67 ]
  call void @llvm.lifetime.start.p0(i64 2, ptr nonnull %7) #9
  call void @llvm.lifetime.start.p0(i64 1, ptr nonnull %8) #9
  %51 = load ptr, ptr %47, align 8
  %52 = zext nneg i32 %50 to i64
  %53 = getelementptr inbounds nuw %struct.ParamExecData, ptr %51, i64 %52
  %54 = load ptr, ptr %48, align 8
  %55 = getelementptr inbounds nuw i8, ptr %54, i64 128
  %56 = load ptr, ptr %55, align 8
  %57 = getelementptr i8, ptr %56, i64 16
  %.val = load ptr, ptr %57, align 8
  %58 = getelementptr inbounds nuw %union.ListCell, ptr %.val, i64 %52
  %59 = load i32, ptr %58, align 8
  %60 = load ptr, ptr %6, align 8
  store i32 %50, ptr %60, align 1
  %61 = load ptr, ptr %6, align 8
  %62 = getelementptr inbounds nuw i8, ptr %61, i64 4
  store ptr %62, ptr %6, align 8
  %.not = icmp eq i32 %59, 0
  br i1 %.not, label %66, label %63

63:                                               ; preds = %49
  call void @get_typlenbyval(i32 noundef %59, ptr noundef nonnull %7, ptr noundef nonnull %8) #9
  %.pre = load i8, ptr %8, align 1, !range !4
  %.pre20 = load i16, ptr %7, align 2
  %64 = trunc nuw i8 %.pre to i1
  %65 = sext i16 %.pre20 to i32
  br label %67

66:                                               ; preds = %49
  store i16 8, ptr %7, align 2
  store i8 1, ptr %8, align 1
  br label %67

67:                                               ; preds = %66, %63
  %68 = phi i32 [ 8, %66 ], [ %65, %63 ]
  %69 = phi i1 [ true, %66 ], [ %64, %63 ]
  %70 = getelementptr inbounds nuw i8, ptr %53, i64 8
  %71 = load i64, ptr %70, align 8
  %72 = getelementptr inbounds nuw i8, ptr %53, i64 16
  %73 = load i8, ptr %72, align 8, !range !4, !noundef !5
  %74 = trunc nuw i8 %73 to i1
  call void @datumSerialize(i64 noundef %71, i1 noundef zeroext %74, i1 noundef zeroext %69, i32 noundef %68, ptr noundef nonnull %6) #9
  call void @llvm.lifetime.end.p0(i64 1, ptr nonnull %8) #9
  call void @llvm.lifetime.end.p0(i64 2, ptr nonnull %7) #9
  %75 = call i32 @bms_next_member(ptr noundef nonnull %1, i32 noundef %50) #9
  %76 = icmp sgt i32 %75, -1
  br i1 %76, label %49, label %._crit_edge, !llvm.loop !10

._crit_edge:                                      ; preds = %67, %EstimateParamExecSpace.exit
  call void @llvm.lifetime.end.p0(i64 8, ptr nonnull %6) #9
  ret i64 %41
}